target datalayout = "e-m:e-p270:32:32-p271:32:32-p272:64:64-i64:64-i128:128-f80:128-n8:16:32:64-S128"
target triple = "x86_64-pc-linux-gnu"

%struct.TypeName = type { i32, ptr, i32, i8, i8, ptr, i32, ptr, i32 }

; Function Attrs: nounwind uwtable
define internal zeroext i1 @_equalTypeName(ptr noundef %0, ptr noundef %1) #0 {
  %3 = alloca i1, align 1
  %4 = alloca ptr, align 8
  %5 = alloca ptr, align 8
  store ptr %0, ptr %4, align 8
  store ptr %1, ptr %5, align 8
  br label %6

6:                                                ; preds = %2
  %7 = load ptr, ptr %4, align 8
  %8 = getelementptr inbounds nuw %struct.TypeName, ptr %7, i32 0, i32 1
  %9 = load ptr, ptr %8, align 8
  %10 = load ptr, ptr %5, align 8
  %11 = getelementptr inbounds nuw %struct.TypeName, ptr %10, i32 0, i32 1
  %12 = load ptr, ptr %11, align 8
  %13 = call zeroext i1 @equal(ptr noundef %9, ptr noundef %12)
  br i1 %13, label %15, label %14

14:                                               ; preds = %6
  store i1 false, ptr %3, align 1
  br label %91

15:                                               ; preds = %6
  br label %16

16:                                               ; preds = %15
  br label %17

17:                                               ; preds = %16
  %18 = load ptr, ptr %4, align 8
  %19 = getelementptr inbounds nuw %struct.TypeName, ptr %18, i32 0, i32 2
  %20 = load i32, ptr %19, align 8
  %21 = load ptr, ptr %5, align 8
  %22 = getelementptr inbounds nuw %struct.TypeName, ptr %21, i32 0, i32 2
  %23 = load i32, ptr %22, align 8
  %24 = icmp ne i32 %20, %23
  br i1 %24, label %25, label %26

25:                                               ; preds = %17
  store i1 false, ptr %3, align 1
  br label %91

26:                                               ; preds = %17
  br label %27

27:                                               ; preds = %26
  br label %28

28:                                               ; preds = %27
  %29 = load ptr, ptr %4, align 8
  %30 = getelementptr inbounds nuw %struct.TypeName, ptr %29, i32 0, i32 3
  %31 = load i8, ptr %30, align 4, !range !4, !noundef !5
  %32 = trunc i8 %31 to i1
  %33 = zext i1 %32 to i32
  %34 = load ptr, ptr %5, align 8
  %35 = getelementptr inbounds nuw %struct.TypeName, ptr %34, i32 0, i32 3
  %36 = load i8, ptr %35, align 4, !range !4, !noundef !5
  %37 = trunc i8 %36 to i1
  %38 = zext i1 %37 to i32
  %39 = icmp ne i32 %33, %38
  br i1 %39, label %40, label %41

40:                                               ; preds = %28
  store i1 false, ptr %3, align 1
  br label %91

41:                                               ; preds = %28
  br label %42

42:                                               ; preds = %41
  br label %43

43:                                               ; preds = %42
  %44 = load ptr, ptr %4, align 8
  %45 = getelementptr inbounds nuw %struct.TypeName, ptr %44, i32 0, i32 4
  %46 = load i8, ptr %45, align 1, !range !4, !noundef !5
  %47 = trunc i8 %46 to i1
  %48 = zext i1 %47 to i32
  %49 = load ptr, ptr %5, align 8
  %50 = getelementptr inbounds nuw %struct.TypeName, ptr %49, i32 0, i32 4
  %51 = load i8, ptr %50, align 1, !range !4, !noundef !5
  %52 = trunc i8 %51 to i1
  %53 = zext i1 %52 to i32
  %54 = icmp ne i32 %48, %53
  br i1 %54, label %55, label %56

55:                                               ; preds = %43
  store i1 false, ptr %3, align 1
  br label %91

56:                                               ; preds = %43
  br label %57

57:                                               ; preds = %56
  br label %58

58:                                               ; preds = %57
  %59 = load ptr, ptr %4, align 8
  %60 = getelementptr inbounds nuw %struct.TypeName, ptr %59, i32 0, i32 5
  %61 = load ptr, ptr %60, align 8
  %62 = load ptr, ptr %5, align 8
  %63 = getelementptr inbounds nuw %struct.TypeName, ptr %62, i32 0, i32 5
  %64 = load ptr, ptr %63, align 8
  %65 = call zeroext i1 @equal(ptr noundef %61, ptr noundef %64)
  br i1 %65, label %67, label %66

66:                                               ; preds = %58
  store i1 false, ptr %3, align 1
  br label %91

67:                                               ; preds = %58
  br label %68

68:                                               ; preds = %67
  br label %69

69:                                               ; preds = %68
  %70 = load ptr, ptr %4, align 8
  %71 = getelementptr inbounds nuw %struct.TypeName, ptr %70, i32 0, i32 6
  %72 = load i32, ptr %71, align 8
  %73 = load ptr, ptr %5, align 8
  %74 = getelementptr inbounds nuw %struct.TypeName, ptr %73, i32 0, i32 6
  %75 = load i32, ptr %74, align 8
  %76 = icmp ne i32 %72, %75
  br i1 %76, label %77, label %78

77:                                               ; preds = %69
  store i1 false, ptr %3, align 1
  br label %91

78:                                               ; preds = %69
  br label %79

79:                                               ; preds = %78
  br label %80

80:                                               ; preds = %79
  %81 = load ptr, ptr %4, align 8
  %82 = getelementptr inbounds nuw %struct.TypeName, ptr %81, i32 0, i32 7
  %83 = load ptr, ptr %82, align 8
  %84 = load ptr, ptr %5, align 8
  %85 = getelementptr inbounds nuw %struct.TypeName, ptr %84, i32 0, i32 7
  %86 = load ptr, ptr %85, align 8
  %87 = call zeroext i1 @equal(ptr noundef %83, ptr noundef %86)
  br i1 %87, label %89, label %88

88:                                               ; preds = %80
  store i1 false, ptr %3, align 1
  br label %91

89:                                               ; preds = %80
  br label %90

90:                                               ; preds = %89
  store i1 true, ptr %3, align 1
  br label %91

91:                                               ; preds = %90, %88, %77, %66, %55, %40, %25, %14
  %92 = load i1, ptr %3, align 1
  ret i1 %92
}