; Function Attrs: nounwind uwtable
define internal fastcc zeroext i1 @_equalTypeName(ptr noundef nonnull readonly captures(none) %0, ptr noundef nonnull readonly captures(none) %1) unnamed_addr #0 {
  %3 = getelementptr inbounds nuw i8, ptr %0, i64 8
  %4 = load ptr, ptr %3, align 8
  %5 = getelementptr inbounds nuw i8, ptr %1, i64 8
  %6 = load ptr, ptr %5, align 8
  %7 = tail call zeroext i1 @equal(ptr noundef %4, ptr noundef %6)
  br i1 %7, label %8, label %40

8:                                                ; preds = %2
  %9 = getelementptr inbounds nuw i8, ptr %0, i64 16
  %10 = load i32, ptr %9, align 8
  %11 = getelementptr inbounds nuw i8, ptr %1, i64 16
  %12 = load i32, ptr %11, align 8
  %.not = icmp eq i32 %10, %12
  br i1 %.not, label %13, label %40

13:                                               ; preds = %8
  %14 = getelementptr inbounds nuw i8, ptr %0, i64 20
  %15 = load i8, ptr %14, align 4, !range !4, !noundef !5
  %16 = getelementptr inbounds nuw i8, ptr %1, i64 20
  %17 = load i8, ptr %16, align 4, !range !4, !noundef !5
  %.not15 = icmp eq i8 %15, %17
  br i1 %.not15, label %18, label %40

18:                                               ; preds = %13
  %19 = getelementptr inbounds nuw i8, ptr %0, i64 21
  %20 = load i8, ptr %19, align 1, !range !4, !noundef !5
  %21 = getelementptr inbounds nuw i8, ptr %1, i64 21
  %22 = load i8, ptr %21, align 1, !range !4, !noundef !5
  %.not16 = icmp eq i8 %20, %22
  br i1 %.not16, label %23, label %40

23:                                               ; preds = %18
  %24 = getelementptr inbounds nuw i8, ptr %0, i64 24
  %25 = load ptr, ptr %24, align 8
  %26 = getelementptr inbounds nuw i8, ptr %1, i64 24
  %27 = load ptr, ptr %26, align 8
  %28 = tail call zeroext i1 @equal(ptr noundef %25, ptr noundef %27)
  br i1 %28, label %29, label %40

29:                                               ; preds = %23
  %30 = getelementptr inbounds nuw i8, ptr %0, i64 32
  %31 = load i32, ptr %30, align 8
  %32 = getelementptr inbounds nuw i8, ptr %1, i64 32
  %33 = load i32, ptr %32, align 8
  %.not17 = icmp eq i32 %31, %33
  br i1 %.not17, label %34, label %40

34:                                               ; preds = %29
  %35 = getelementptr inbounds nuw i8, ptr %0, i64 40
  %36 = load ptr, ptr %35, align 8
  %37 = getelementptr inbounds nuw i8, ptr %1, i64 40
  %38 = load ptr, ptr %37, align 8
  %39 = tail call zeroext i1 @equal(ptr noundef %36, ptr noundef %38)
  br label %40

40:                                               ; preds = %34, %29, %23, %18, %13, %8, %2
  %.0 = phi i1 [ false, %2 ], [ false, %8 ], [ false, %13 ], [ false, %18 ], [ false, %23 ], [ false, %29 ], [ %39, %34 ]
  ret i1 %.0
}